; Function Attrs: mustprogress uwtable
define dso_local void @_ZN27cmGeneratorExpressionParser5ParseERSt6vectorISt10unique_ptrI30cmGeneratorExpressionEvaluatorSt14default_deleteIS2_EESaIS5_EE(ptr nocapture noundef nonnull align 8 dereferenceable(36) %0, ptr noundef nonnull align 8 dereferenceable(24) %1) local_unnamed_addr #1 align 2 {
  %3 = getelementptr inbounds i8, ptr %0, i64 8
  %4 = load ptr, ptr %3, align 8
  store ptr %4, ptr %0, align 8
  %5 = getelementptr inbounds i8, ptr %0, i64 16
  %6 = load ptr, ptr %5, align 8
  %.not2 = icmp eq ptr %4, %6
  br i1 %.not2, label %._crit_edge, label %.lr.ph

.lr.ph:                                           ; preds = %2, %.lr.ph
  tail call void @_ZN27cmGeneratorExpressionParser12ParseContentERSt6vectorISt10unique_ptrI30cmGeneratorExpressionEvaluatorSt14default_deleteIS2_EESaIS5_EE(ptr noundef nonnull align 8 dereferenceable(36) %0, ptr noundef nonnull align 8 dereferenceable(24) %1)
  %7 = load ptr, ptr %5, align 8
  %8 = load ptr, ptr %0, align 8
  %.not = icmp eq ptr %8, %7
  br i1 %.not, label %._crit_edge, label %.lr.ph, !llvm.loop !5

._crit_edge:                                      ; preds = %.lr.ph, %2
  ret void
}